CCS PCM C Compiler, Version 4.074, 38112               24-ago-16 20:31

               Filename: display.lst

               ROM used: 406 words (20%)
                         Largest free fragment is 1642
               RAM used: 8 (4%) at main() level
                         8 (4%) worst case
               Stack:    0 locations

*
0000:  NOP
0001:  MOVLW  00
0002:  MOVWF  0A
0003:  GOTO   004
.................... #include<16f628a.h> 
.................... //////// Standard Header file for the PIC16F628A device //////////////// 
.................... #device PIC16F628A 
.................... #list 
....................  
.................... //#fuses XT, NOWDT, NOPROTECT, BROWNOUT, PUT, NOLVP,INTRC_IO 
....................  
.................... void main(){ 
0004:  CLRF   04
0005:  BCF    03.7
0006:  MOVLW  1F
0007:  ANDWF  03,F
0008:  MOVLW  07
0009:  MOVWF  1F
.................... 	while(TRUE){ 
.................... 		//marcha 1 pra frente 
.................... 		if(input(pin_a0) & input(pin_a1) & input(pin_a6)){ 
000A:  BSF    03.5
000B:  BSF    05.0
000C:  MOVLW  00
000D:  BCF    03.5
000E:  BTFSC  05.0
000F:  MOVLW  01
0010:  MOVWF  21
0011:  BSF    03.5
0012:  BSF    05.1
0013:  MOVLW  00
0014:  BCF    03.5
0015:  BTFSC  05.1
0016:  MOVLW  01
0017:  ANDWF  21,W
0018:  MOVWF  22
0019:  BSF    03.5
001A:  BSF    05.6
001B:  MOVLW  00
001C:  BCF    03.5
001D:  BTFSC  05.6
001E:  MOVLW  01
001F:  ANDWF  22,W
0020:  BTFSC  03.2
0021:  GOTO   047
.................... 			output_low(pin_a3); 
0022:  BSF    03.5
0023:  BCF    05.3
0024:  BCF    03.5
0025:  BCF    05.3
.................... 			output_high(pin_b0); 
0026:  BSF    03.5
0027:  BCF    06.0
0028:  BCF    03.5
0029:  BSF    06.0
.................... 			output_high(pin_b1); 
002A:  BSF    03.5
002B:  BCF    06.1
002C:  BCF    03.5
002D:  BSF    06.1
.................... 			output_low(pin_b2); 
002E:  BSF    03.5
002F:  BCF    06.2
0030:  BCF    03.5
0031:  BCF    06.2
.................... 			output_low(pin_b3); 
0032:  BSF    03.5
0033:  BCF    06.3
0034:  BCF    03.5
0035:  BCF    06.3
.................... 			output_low(pin_b4); 
0036:  BSF    03.5
0037:  BCF    06.4
0038:  BCF    03.5
0039:  BCF    06.4
.................... 			output_low(pin_b5); 
003A:  BSF    03.5
003B:  BCF    06.5
003C:  BCF    03.5
003D:  BCF    06.5
.................... 			output_low(pin_b6); 
003E:  BSF    03.5
003F:  BCF    06.6
0040:  BCF    03.5
0041:  BCF    06.6
.................... 			output_high(pin_b7); 
0042:  BSF    03.5
0043:  BCF    06.7
0044:  BCF    03.5
0045:  BSF    06.7
.................... 		} 
.................... 		//marcha 2 pra frente 
.................... 		else if(input(pin_a0) & input(pin_a1)){ 
0046:  GOTO   194
0047:  BSF    03.5
0048:  BSF    05.0
0049:  MOVLW  00
004A:  BCF    03.5
004B:  BTFSC  05.0
004C:  MOVLW  01
004D:  MOVWF  21
004E:  BSF    03.5
004F:  BSF    05.1
0050:  MOVLW  00
0051:  BCF    03.5
0052:  BTFSC  05.1
0053:  MOVLW  01
0054:  ANDWF  21,W
0055:  BTFSC  03.2
0056:  GOTO   07C
.................... 			output_high(pin_a3); 
0057:  BSF    03.5
0058:  BCF    05.3
0059:  BCF    03.5
005A:  BSF    05.3
.................... 			output_high(pin_b0); 
005B:  BSF    03.5
005C:  BCF    06.0
005D:  BCF    03.5
005E:  BSF    06.0
.................... 			output_low(pin_b1); 
005F:  BSF    03.5
0060:  BCF    06.1
0061:  BCF    03.5
0062:  BCF    06.1
.................... 			output_high(pin_b2); 
0063:  BSF    03.5
0064:  BCF    06.2
0065:  BCF    03.5
0066:  BSF    06.2
.................... 			output_high(pin_b3); 
0067:  BSF    03.5
0068:  BCF    06.3
0069:  BCF    03.5
006A:  BSF    06.3
.................... 			output_low(pin_b4); 
006B:  BSF    03.5
006C:  BCF    06.4
006D:  BCF    03.5
006E:  BCF    06.4
.................... 			output_high(pin_b5); 
006F:  BSF    03.5
0070:  BCF    06.5
0071:  BCF    03.5
0072:  BSF    06.5
.................... 			output_low(pin_b6); 
0073:  BSF    03.5
0074:  BCF    06.6
0075:  BCF    03.5
0076:  BCF    06.6
.................... 			output_high(pin_b7); 
0077:  BSF    03.5
0078:  BCF    06.7
0079:  BCF    03.5
007A:  BSF    06.7
.................... 		} 
.................... 		//marcha 3 pra frente 
.................... 		else if(input(pin_a1)){ 
007B:  GOTO   194
007C:  BSF    03.5
007D:  BSF    05.1
007E:  BCF    03.5
007F:  BTFSS  05.1
0080:  GOTO   0A6
.................... 			output_high(pin_a3); 
0081:  BSF    03.5
0082:  BCF    05.3
0083:  BCF    03.5
0084:  BSF    05.3
.................... 			output_high(pin_b0); 
0085:  BSF    03.5
0086:  BCF    06.0
0087:  BCF    03.5
0088:  BSF    06.0
.................... 			output_high(pin_b1); 
0089:  BSF    03.5
008A:  BCF    06.1
008B:  BCF    03.5
008C:  BSF    06.1
.................... 			output_high(pin_b2); 
008D:  BSF    03.5
008E:  BCF    06.2
008F:  BCF    03.5
0090:  BSF    06.2
.................... 			output_low(pin_b3); 
0091:  BSF    03.5
0092:  BCF    06.3
0093:  BCF    03.5
0094:  BCF    06.3
.................... 			output_low(pin_b4); 
0095:  BSF    03.5
0096:  BCF    06.4
0097:  BCF    03.5
0098:  BCF    06.4
.................... 			output_high(pin_b5); 
0099:  BSF    03.5
009A:  BCF    06.5
009B:  BCF    03.5
009C:  BSF    06.5
.................... 			output_low(pin_b6); 
009D:  BSF    03.5
009E:  BCF    06.6
009F:  BCF    03.5
00A0:  BCF    06.6
.................... 			output_high(pin_b7); 
00A1:  BSF    03.5
00A2:  BCF    06.7
00A3:  BCF    03.5
00A4:  BSF    06.7
.................... 		} 
.................... 		//marcha 4 pra frente 
.................... 		else if(input(pin_a2)){ 
00A5:  GOTO   194
00A6:  BSF    03.5
00A7:  BSF    05.2
00A8:  BCF    03.5
00A9:  BTFSS  05.2
00AA:  GOTO   0D0
.................... 			output_low(pin_a3); 
00AB:  BSF    03.5
00AC:  BCF    05.3
00AD:  BCF    03.5
00AE:  BCF    05.3
.................... 			output_high(pin_b0); 
00AF:  BSF    03.5
00B0:  BCF    06.0
00B1:  BCF    03.5
00B2:  BSF    06.0
.................... 			output_high(pin_b1); 
00B3:  BSF    03.5
00B4:  BCF    06.1
00B5:  BCF    03.5
00B6:  BSF    06.1
.................... 			output_low(pin_b2); 
00B7:  BSF    03.5
00B8:  BCF    06.2
00B9:  BCF    03.5
00BA:  BCF    06.2
.................... 			output_low(pin_b3); 
00BB:  BSF    03.5
00BC:  BCF    06.3
00BD:  BCF    03.5
00BE:  BCF    06.3
.................... 			output_high(pin_b4); 
00BF:  BSF    03.5
00C0:  BCF    06.4
00C1:  BCF    03.5
00C2:  BSF    06.4
.................... 			output_high(pin_b5); 
00C3:  BSF    03.5
00C4:  BCF    06.5
00C5:  BCF    03.5
00C6:  BSF    06.5
.................... 			output_low(pin_b6); 
00C7:  BSF    03.5
00C8:  BCF    06.6
00C9:  BCF    03.5
00CA:  BCF    06.6
.................... 			output_high(pin_b7); 
00CB:  BSF    03.5
00CC:  BCF    06.7
00CD:  BCF    03.5
00CE:  BSF    06.7
.................... 		} 
.................... 		//marcha 1 pra tras 
.................... 		else if(input(pin_a0) & input(pin_a6) & input(pin_a7)){ 
00CF:  GOTO   194
00D0:  BSF    03.5
00D1:  BSF    05.0
00D2:  MOVLW  00
00D3:  BCF    03.5
00D4:  BTFSC  05.0
00D5:  MOVLW  01
00D6:  MOVWF  21
00D7:  BSF    03.5
00D8:  BSF    05.6
00D9:  MOVLW  00
00DA:  BCF    03.5
00DB:  BTFSC  05.6
00DC:  MOVLW  01
00DD:  ANDWF  21,W
00DE:  MOVWF  22
00DF:  BSF    03.5
00E0:  BSF    05.7
00E1:  MOVLW  00
00E2:  BCF    03.5
00E3:  BTFSC  05.7
00E4:  MOVLW  01
00E5:  ANDWF  22,W
00E6:  BTFSC  03.2
00E7:  GOTO   10D
.................... 			output_low(pin_a3); 
00E8:  BSF    03.5
00E9:  BCF    05.3
00EA:  BCF    03.5
00EB:  BCF    05.3
.................... 			output_high(pin_b0); 
00EC:  BSF    03.5
00ED:  BCF    06.0
00EE:  BCF    03.5
00EF:  BSF    06.0
.................... 			output_high(pin_b1); 
00F0:  BSF    03.5
00F1:  BCF    06.1
00F2:  BCF    03.5
00F3:  BSF    06.1
.................... 			output_low(pin_b2); 
00F4:  BSF    03.5
00F5:  BCF    06.2
00F6:  BCF    03.5
00F7:  BCF    06.2
.................... 			output_low(pin_b3); 
00F8:  BSF    03.5
00F9:  BCF    06.3
00FA:  BCF    03.5
00FB:  BCF    06.3
.................... 			output_low(pin_b4); 
00FC:  BSF    03.5
00FD:  BCF    06.4
00FE:  BCF    03.5
00FF:  BCF    06.4
.................... 			output_low(pin_b5); 
0100:  BSF    03.5
0101:  BCF    06.5
0102:  BCF    03.5
0103:  BCF    06.5
.................... 			output_high(pin_b6); 
0104:  BSF    03.5
0105:  BCF    06.6
0106:  BCF    03.5
0107:  BSF    06.6
.................... 			output_low(pin_b7); 
0108:  BSF    03.5
0109:  BCF    06.7
010A:  BCF    03.5
010B:  BCF    06.7
.................... 		} 
.................... 		//marcha 2 pra tras 
.................... 		else if(input(pin_a0) & input(pin_a7)){ 
010C:  GOTO   194
010D:  BSF    03.5
010E:  BSF    05.0
010F:  MOVLW  00
0110:  BCF    03.5
0111:  BTFSC  05.0
0112:  MOVLW  01
0113:  MOVWF  21
0114:  BSF    03.5
0115:  BSF    05.7
0116:  MOVLW  00
0117:  BCF    03.5
0118:  BTFSC  05.7
0119:  MOVLW  01
011A:  ANDWF  21,W
011B:  BTFSC  03.2
011C:  GOTO   142
.................... 			output_high(pin_a3); 
011D:  BSF    03.5
011E:  BCF    05.3
011F:  BCF    03.5
0120:  BSF    05.3
.................... 			output_high(pin_b0); 
0121:  BSF    03.5
0122:  BCF    06.0
0123:  BCF    03.5
0124:  BSF    06.0
.................... 			output_low(pin_b1); 
0125:  BSF    03.5
0126:  BCF    06.1
0127:  BCF    03.5
0128:  BCF    06.1
.................... 			output_high(pin_b2); 
0129:  BSF    03.5
012A:  BCF    06.2
012B:  BCF    03.5
012C:  BSF    06.2
.................... 			output_high(pin_b3); 
012D:  BSF    03.5
012E:  BCF    06.3
012F:  BCF    03.5
0130:  BSF    06.3
.................... 			output_low(pin_b4); 
0131:  BSF    03.5
0132:  BCF    06.4
0133:  BCF    03.5
0134:  BCF    06.4
.................... 			output_high(pin_b5); 
0135:  BSF    03.5
0136:  BCF    06.5
0137:  BCF    03.5
0138:  BSF    06.5
.................... 			output_high(pin_b6); 
0139:  BSF    03.5
013A:  BCF    06.6
013B:  BCF    03.5
013C:  BSF    06.6
.................... 			output_low(pin_b7); 
013D:  BSF    03.5
013E:  BCF    06.7
013F:  BCF    03.5
0140:  BCF    06.7
.................... 		} 
.................... 		//marcha 3 pra tras 
.................... 		else if(input(pin_a7)){ 
0141:  GOTO   194
0142:  BSF    03.5
0143:  BSF    05.7
0144:  BCF    03.5
0145:  BTFSS  05.7
0146:  GOTO   16C
.................... 			output_high(pin_a3); 
0147:  BSF    03.5
0148:  BCF    05.3
0149:  BCF    03.5
014A:  BSF    05.3
.................... 			output_high(pin_b0); 
014B:  BSF    03.5
014C:  BCF    06.0
014D:  BCF    03.5
014E:  BSF    06.0
.................... 			output_high(pin_b1); 
014F:  BSF    03.5
0150:  BCF    06.1
0151:  BCF    03.5
0152:  BSF    06.1
.................... 			output_high(pin_b2); 
0153:  BSF    03.5
0154:  BCF    06.2
0155:  BCF    03.5
0156:  BSF    06.2
.................... 			output_low(pin_b3); 
0157:  BSF    03.5
0158:  BCF    06.3
0159:  BCF    03.5
015A:  BCF    06.3
.................... 			output_low(pin_b4); 
015B:  BSF    03.5
015C:  BCF    06.4
015D:  BCF    03.5
015E:  BCF    06.4
.................... 			output_high(pin_b5); 
015F:  BSF    03.5
0160:  BCF    06.5
0161:  BCF    03.5
0162:  BSF    06.5
.................... 			output_high(pin_b6); 
0163:  BSF    03.5
0164:  BCF    06.6
0165:  BCF    03.5
0166:  BSF    06.6
.................... 			output_low(pin_b7); 
0167:  BSF    03.5
0168:  BCF    06.7
0169:  BCF    03.5
016A:  BCF    06.7
.................... 		} 
.................... 		//ponto morto 
.................... 		else{ 
016B:  GOTO   194
.................... 			output_high(pin_b7); 
016C:  BSF    03.5
016D:  BCF    06.7
016E:  BCF    03.5
016F:  BSF    06.7
.................... 			output_high(pin_a3); 
0170:  BSF    03.5
0171:  BCF    05.3
0172:  BCF    03.5
0173:  BSF    05.3
.................... 			output_high(pin_b0); 
0174:  BSF    03.5
0175:  BCF    06.0
0176:  BCF    03.5
0177:  BSF    06.0
.................... 			output_high(pin_b1); 
0178:  BSF    03.5
0179:  BCF    06.1
017A:  BCF    03.5
017B:  BSF    06.1
.................... 			output_high(pin_b2); 
017C:  BSF    03.5
017D:  BCF    06.2
017E:  BCF    03.5
017F:  BSF    06.2
.................... 			output_high(pin_b3); 
0180:  BSF    03.5
0181:  BCF    06.3
0182:  BCF    03.5
0183:  BSF    06.3
.................... 			output_high(pin_b4); 
0184:  BSF    03.5
0185:  BCF    06.4
0186:  BCF    03.5
0187:  BSF    06.4
.................... 			output_low(pin_b5); 
0188:  BSF    03.5
0189:  BCF    06.5
018A:  BCF    03.5
018B:  BCF    06.5
.................... 			output_high(pin_b6); 
018C:  BSF    03.5
018D:  BCF    06.6
018E:  BCF    03.5
018F:  BSF    06.6
.................... 			output_high(pin_b7); 
0190:  BSF    03.5
0191:  BCF    06.7
0192:  BCF    03.5
0193:  BSF    06.7
.................... 		} 
.................... 	} 
0194:  GOTO   00A
.................... } 
0195:  GOTO   195

Configuration Fuses:
   Word  1: 3F1B   NOWDT NOPUT NOPROTECT NOBROWNOUT NOMCLR NOLVP RC NOCPD
